; Function Attrs: mustprogress uwtable
define dso_local void @_ZN3tev11ImageViewer9groupNameEm(ptr dead_on_unwind noalias writable sret(%"class.std::__1::basic_string") align 8 %0, ptr nocapture noundef nonnull readonly align 16 dereferenceable(972) %1, i64 noundef %2) local_unnamed_addr #7 align 2 personality ptr @__gxx_personality_v0 {
  %4 = getelementptr inbounds i8, ptr %1, i64 656
  %5 = load ptr, ptr %4, align 16
  %.not = icmp eq ptr %5, null
  br i1 %.not, label %6, label %7

6:                                                ; preds = %3
  tail call void @_ZNSt3__112basic_stringIcNS_11char_traitsIcEENS_9allocatorIcEEE6__initEPKcm(ptr noundef nonnull align 8 dereferenceable(24) %0, ptr noundef nonnull @.str.4, i64 noundef 0)
  br label %18

7:                                                ; preds = %3
  %8 = getelementptr inbounds i8, ptr %5, i64 296
  %9 = getelementptr inbounds i8, ptr %5, i64 304
  %10 = load ptr, ptr %9, align 8
  %11 = load ptr, ptr %8, align 8
  %12 = ptrtoint ptr %10 to i64
  %13 = ptrtoint ptr %11 to i64
  %14 = sub i64 %12, %13
  %15 = sdiv exact i64 %14, 48
  %.not.i = icmp ugt i64 %15, %2
  br i1 %.not.i, label %_ZNKSt3__16vectorIN3tev12ChannelGroupENS_9allocatorIS2_EEE2atEm.exit, label %16

16:                                               ; preds = %7
  tail call void @_ZNKSt3__16vectorIN3tev12ChannelGroupENS_9allocatorIS2_EEE20__throw_out_of_rangeB8ne190000Ev(ptr noundef nonnull align 8 dereferenceable(24) %8) #43
  unreachable

_ZNKSt3__16vectorIN3tev12ChannelGroupENS_9allocatorIS2_EEE2atEm.exit: ; preds = %7
  %17 = getelementptr inbounds %"struct.tev::ChannelGroup", ptr %11, i64 %2
  tail call void @_ZNSt3__112basic_stringIcNS_11char_traitsIcEENS_9allocatorIcEEEC1ERKS5_(ptr noundef nonnull align 8 dereferenceable(24) %0, ptr noundef nonnull align 8 dereferenceable(24) %17)
  br label %18

18:                                               ; preds = %_ZNKSt3__16vectorIN3tev12ChannelGroupENS_9allocatorIS2_EEE2atEm.exit, %6
  ret void
}